; ModuleID = 'source-C-CXX/41/1846.cpp'
source_filename = "source-C-CXX/41/1846.cpp"
target datalayout = "e-m:e-p270:32:32-p271:32:32-p272:64:64-i64:64-f80:128-n8:16:32:64-S128"
target triple = "x86_64-pc-linux-gnu"

%"class.std::ios_base::Init" = type { i8 }
%"class.std::basic_istream" = type { i32 (...)**, i64, %"class.std::basic_ios" }
%"class.std::basic_ios" = type { %"class.std::ios_base", %"class.std::basic_ostream"*, i8, i8, %"class.std::basic_streambuf"*, %"class.std::ctype"*, %"class.std::num_put"*, %"class.std::num_get"* }
%"class.std::ios_base" = type { i32 (...)**, i64, i64, i32, i32, i32, %"struct.std::ios_base::_Callback_list"*, %"struct.std::ios_base::_Words", [8 x %"struct.std::ios_base::_Words"], i32, %"struct.std::ios_base::_Words"*, %"class.std::locale" }
%"struct.std::ios_base::_Callback_list" = type { %"struct.std::ios_base::_Callback_list"*, void (i32, %"class.std::ios_base"*, i32)*, i32, i32 }
%"struct.std::ios_base::_Words" = type { i8*, i64 }
%"class.std::locale" = type { %"class.std::locale::_Impl"* }
%"class.std::locale::_Impl" = type { i32, %"class.std::locale::facet"**, i64, %"class.std::locale::facet"**, i8** }
%"class.std::locale::facet" = type <{ i32 (...)**, i32, [4 x i8] }>
%"class.std::basic_ostream" = type { i32 (...)**, %"class.std::basic_ios" }
%"class.std::basic_streambuf" = type { i32 (...)**, i8*, i8*, i8*, i8*, i8*, i8*, %"class.std::locale" }
%"class.std::ctype" = type <{ %"class.std::locale::facet.base", [4 x i8], %struct.__locale_struct*, i8, [7 x i8], i32*, i32*, i16*, i8, [256 x i8], [256 x i8], i8, [6 x i8] }>
%"class.std::locale::facet.base" = type <{ i32 (...)**, i32 }>
%struct.__locale_struct = type { [13 x %struct.__locale_data*], i16*, i32*, i32*, [13 x i8*] }
%struct.__locale_data = type opaque
%"class.std::num_put" = type { %"class.std::locale::facet.base", [4 x i8] }
%"class.std::num_get" = type { %"class.std::locale::facet.base", [4 x i8] }

@_ZStL8__ioinit = internal global %"class.std::ios_base::Init" zeroinitializer, align 1
@__dso_handle = external hidden global i8
@_ZSt3cin = external global %"class.std::basic_istream", align 8
@_ZSt4cout = external global %"class.std::basic_ostream", align 8
@.str = private unnamed_addr constant [2 x i8] c" \00", align 1
@llvm.global_ctors = appending global [1 x { i32, void ()*, i8* }] [{ i32, void ()*, i8* } { i32 65535, void ()* @_GLOBAL__sub_I_1846.cpp, i8* null }]

declare void @_ZNSt8ios_base4InitC1Ev(%"class.std::ios_base::Init"* nonnull align 1 dereferenceable(1)) unnamed_addr #0

; Function Attrs: nounwind
declare void @_ZNSt8ios_base4InitD1Ev(%"class.std::ios_base::Init"* nonnull align 1 dereferenceable(1)) unnamed_addr #1

; Function Attrs: nofree nounwind
declare i32 @__cxa_atexit(void (i8*)*, i8*, i8*) local_unnamed_addr #2

; Function Attrs: mustprogress norecurse sspstrong uwtable
define dso_local i32 @main() local_unnamed_addr #3 {
  %1 = alloca i32, align 4
  %2 = alloca i32, align 4
  %3 = alloca [100000 x i32], align 16
  %4 = bitcast i32* %1 to i8*
  call void @llvm.lifetime.start.p0i8(i64 4, i8* nonnull %4) #7
  %5 = bitcast i32* %2 to i8*
  call void @llvm.lifetime.start.p0i8(i64 4, i8* nonnull %5) #7
  %6 = call nonnull align 8 dereferenceable(16) %"class.std::basic_istream"* @_ZNSirsERi(%"class.std::basic_istream"* nonnull align 8 dereferenceable(16) @_ZSt3cin, i32* nonnull align 4 dereferenceable(4) %1)
  %7 = bitcast [100000 x i32]* %3 to i8*
  call void @llvm.lifetime.start.p0i8(i64 400000, i8* nonnull %7) #7
  %8 = load i32, i32* %1, align 4, !tbaa !5
  %9 = icmp sgt i32 %8, 0
  br i1 %9, label %10, label %18

10:                                               ; preds = %0, %10
  %11 = phi i64 [ %14, %10 ], [ 0, %0 ]
  %12 = getelementptr inbounds [100000 x i32], [100000 x i32]* %3, i64 0, i64 %11
  %13 = call nonnull align 8 dereferenceable(16) %"class.std::basic_istream"* @_ZNSirsERi(%"class.std::basic_istream"* nonnull align 8 dereferenceable(16) @_ZSt3cin, i32* nonnull align 4 dereferenceable(4) %12)
  %14 = add nuw nsw i64 %11, 1
  %15 = load i32, i32* %1, align 4, !tbaa !5
  %16 = sext i32 %15 to i64
  %17 = icmp slt i64 %14, %16
  br i1 %17, label %10, label %18, !llvm.loop !9

18:                                               ; preds = %10, %0
  %19 = call nonnull align 8 dereferenceable(16) %"class.std::basic_istream"* @_ZNSirsERi(%"class.std::basic_istream"* nonnull align 8 dereferenceable(16) @_ZSt3cin, i32* nonnull align 4 dereferenceable(4) %2)
  %20 = load i32, i32* %1, align 4, !tbaa !5
  %21 = load i32, i32* %2, align 4
  %22 = icmp sgt i32 %20, 0
  br i1 %22, label %23, label %101

23:                                               ; preds = %18
  %24 = zext i32 %20 to i64
  %25 = icmp ult i32 %20, 8
  br i1 %25, label %98, label %26

26:                                               ; preds = %23
  %27 = and i64 %24, 4294967288
  %28 = insertelement <4 x i32> poison, i32 %21, i32 0
  %29 = shufflevector <4 x i32> %28, <4 x i32> poison, <4 x i32> zeroinitializer
  %30 = insertelement <4 x i32> poison, i32 %21, i32 0
  %31 = shufflevector <4 x i32> %30, <4 x i32> poison, <4 x i32> zeroinitializer
  %32 = add nsw i64 %27, -8
  %33 = lshr exact i64 %32, 3
  %34 = add nuw nsw i64 %33, 1
  %35 = and i64 %34, 1
  %36 = icmp eq i64 %32, 0
  br i1 %36, label %72, label %37

37:                                               ; preds = %26
  %38 = and i64 %34, 4611686018427387902
  br label %39

39:                                               ; preds = %39, %37
  %40 = phi i64 [ 0, %37 ], [ %69, %39 ]
  %41 = phi <4 x i32> [ zeroinitializer, %37 ], [ %67, %39 ]
  %42 = phi <4 x i32> [ zeroinitializer, %37 ], [ %68, %39 ]
  %43 = phi i64 [ %38, %37 ], [ %70, %39 ]
  %44 = getelementptr inbounds [100000 x i32], [100000 x i32]* %3, i64 0, i64 %40
  %45 = bitcast i32* %44 to <4 x i32>*
  %46 = load <4 x i32>, <4 x i32>* %45, align 16, !tbaa !5
  %47 = getelementptr inbounds i32, i32* %44, i64 4
  %48 = bitcast i32* %47 to <4 x i32>*
  %49 = load <4 x i32>, <4 x i32>* %48, align 16, !tbaa !5
  %50 = icmp eq <4 x i32> %46, %29
  %51 = icmp eq <4 x i32> %49, %31
  %52 = zext <4 x i1> %50 to <4 x i32>
  %53 = zext <4 x i1> %51 to <4 x i32>
  %54 = add <4 x i32> %41, %52
  %55 = add <4 x i32> %42, %53
  %56 = or i64 %40, 8
  %57 = getelementptr inbounds [100000 x i32], [100000 x i32]* %3, i64 0, i64 %56
  %58 = bitcast i32* %57 to <4 x i32>*
  %59 = load <4 x i32>, <4 x i32>* %58, align 16, !tbaa !5
  %60 = getelementptr inbounds i32, i32* %57, i64 4
  %61 = bitcast i32* %60 to <4 x i32>*
  %62 = load <4 x i32>, <4 x i32>* %61, align 16, !tbaa !5
  %63 = icmp eq <4 x i32> %59, %29
  %64 = icmp eq <4 x i32> %62, %31
  %65 = zext <4 x i1> %63 to <4 x i32>
  %66 = zext <4 x i1> %64 to <4 x i32>
  %67 = add <4 x i32> %54, %65
  %68 = add <4 x i32> %55, %66
  %69 = add nuw i64 %40, 16
  %70 = add i64 %43, -2
  %71 = icmp eq i64 %70, 0
  br i1 %71, label %72, label %39, !llvm.loop !11

72:                                               ; preds = %39, %26
  %73 = phi <4 x i32> [ undef, %26 ], [ %67, %39 ]
  %74 = phi <4 x i32> [ undef, %26 ], [ %68, %39 ]
  %75 = phi i64 [ 0, %26 ], [ %69, %39 ]
  %76 = phi <4 x i32> [ zeroinitializer, %26 ], [ %67, %39 ]
  %77 = phi <4 x i32> [ zeroinitializer, %26 ], [ %68, %39 ]
  %78 = icmp eq i64 %35, 0
  br i1 %78, label %92, label %79

79:                                               ; preds = %72
  %80 = getelementptr inbounds [100000 x i32], [100000 x i32]* %3, i64 0, i64 %75
  %81 = getelementptr inbounds i32, i32* %80, i64 4
  %82 = bitcast i32* %81 to <4 x i32>*
  %83 = load <4 x i32>, <4 x i32>* %82, align 16, !tbaa !5
  %84 = icmp eq <4 x i32> %83, %31
  %85 = zext <4 x i1> %84 to <4 x i32>
  %86 = add <4 x i32> %77, %85
  %87 = bitcast i32* %80 to <4 x i32>*
  %88 = load <4 x i32>, <4 x i32>* %87, align 16, !tbaa !5
  %89 = icmp eq <4 x i32> %88, %29
  %90 = zext <4 x i1> %89 to <4 x i32>
  %91 = add <4 x i32> %76, %90
  br label %92

92:                                               ; preds = %72, %79
  %93 = phi <4 x i32> [ %73, %72 ], [ %91, %79 ]
  %94 = phi <4 x i32> [ %74, %72 ], [ %86, %79 ]
  %95 = add <4 x i32> %94, %93
  %96 = call i32 @llvm.vector.reduce.add.v4i32(<4 x i32> %95)
  %97 = icmp eq i64 %27, %24
  br i1 %97, label %101, label %98

98:                                               ; preds = %23, %92
  %99 = phi i64 [ 0, %23 ], [ %27, %92 ]
  %100 = phi i32 [ 0, %23 ], [ %96, %92 ]
  br label %108

101:                                              ; preds = %108, %92, %18
  %102 = phi i32 [ 0, %18 ], [ %96, %92 ], [ %115, %108 ]
  %103 = sub i32 %20, %102
  %104 = icmp sgt i32 %103, 0
  br i1 %104, label %105, label %124

105:                                              ; preds = %101
  %106 = sext i32 %20 to i64
  %107 = zext i32 %103 to i64
  br label %118

108:                                              ; preds = %98, %108
  %109 = phi i64 [ %116, %108 ], [ %99, %98 ]
  %110 = phi i32 [ %115, %108 ], [ %100, %98 ]
  %111 = getelementptr inbounds [100000 x i32], [100000 x i32]* %3, i64 0, i64 %109
  %112 = load i32, i32* %111, align 4, !tbaa !5
  %113 = icmp eq i32 %112, %21
  %114 = zext i1 %113 to i32
  %115 = add nuw nsw i32 %110, %114
  %116 = add nuw nsw i64 %109, 1
  %117 = icmp eq i64 %116, %24
  br i1 %117, label %101, label %108, !llvm.loop !13

118:                                              ; preds = %105, %139
  %119 = phi i64 [ 0, %105 ], [ %141, %139 ]
  %120 = phi i32 [ 0, %105 ], [ %140, %139 ]
  %121 = icmp slt i32 %120, %20
  br i1 %121, label %122, label %139

122:                                              ; preds = %118
  %123 = sext i32 %120 to i64
  br label %127

124:                                              ; preds = %139, %101
  %125 = xor i32 %102, -1
  %126 = icmp sgt i32 %20, %102
  br i1 %126, label %143, label %161

127:                                              ; preds = %122, %136
  %128 = phi i64 [ %123, %122 ], [ %137, %136 ]
  %129 = getelementptr inbounds [100000 x i32], [100000 x i32]* %3, i64 0, i64 %128
  %130 = load i32, i32* %129, align 4, !tbaa !5
  %131 = icmp eq i32 %130, %21
  br i1 %131, label %136, label %132

132:                                              ; preds = %127
  %133 = trunc i64 %128 to i32
  %134 = getelementptr inbounds [100000 x i32], [100000 x i32]* %3, i64 0, i64 %119
  store i32 %130, i32* %134, align 4, !tbaa !5
  %135 = add nsw i32 %133, 1
  br label %139

136:                                              ; preds = %127
  %137 = add nsw i64 %128, 1
  %138 = icmp eq i64 %137, %106
  br i1 %138, label %139, label %127, !llvm.loop !15

139:                                              ; preds = %136, %118, %132
  %140 = phi i32 [ %135, %132 ], [ %120, %118 ], [ %120, %136 ]
  %141 = add nuw nsw i64 %119, 1
  %142 = icmp eq i64 %141, %107
  br i1 %142, label %124, label %118, !llvm.loop !16

143:                                              ; preds = %124, %155
  %144 = phi i64 [ %157, %155 ], [ 0, %124 ]
  %145 = getelementptr inbounds [100000 x i32], [100000 x i32]* %3, i64 0, i64 %144
  %146 = load i32, i32* %145, align 4, !tbaa !5
  %147 = call nonnull align 8 dereferenceable(8) %"class.std::basic_ostream"* @_ZNSolsEi(%"class.std::basic_ostream"* nonnull align 8 dereferenceable(8) @_ZSt4cout, i32 %146)
  %148 = load i32, i32* %1, align 4, !tbaa !5
  %149 = add i32 %148, %125
  %150 = sext i32 %149 to i64
  %151 = icmp slt i64 %144, %150
  br i1 %151, label %152, label %155

152:                                              ; preds = %143
  %153 = call nonnull align 8 dereferenceable(8) %"class.std::basic_ostream"* @_ZSt16__ostream_insertIcSt11char_traitsIcEERSt13basic_ostreamIT_T0_ES6_PKS3_l(%"class.std::basic_ostream"* nonnull align 8 dereferenceable(8) @_ZSt4cout, i8* nonnull getelementptr inbounds ([2 x i8], [2 x i8]* @.str, i64 0, i64 0), i64 1)
  %154 = load i32, i32* %1, align 4, !tbaa !5
  br label %155

155:                                              ; preds = %143, %152
  %156 = phi i32 [ %148, %143 ], [ %154, %152 ]
  %157 = add nuw nsw i64 %144, 1
  %158 = sub nsw i32 %156, %102
  %159 = sext i32 %158 to i64
  %160 = icmp slt i64 %157, %159
  br i1 %160, label %143, label %161, !llvm.loop !17

161:                                              ; preds = %155, %124
  call void @llvm.lifetime.end.p0i8(i64 400000, i8* nonnull %7) #7
  call void @llvm.lifetime.end.p0i8(i64 4, i8* nonnull %5) #7
  call void @llvm.lifetime.end.p0i8(i64 4, i8* nonnull %4) #7
  ret i32 0
}

; Function Attrs: argmemonly mustprogress nofree nosync nounwind willreturn
declare void @llvm.lifetime.start.p0i8(i64 immarg, i8* nocapture) #4

declare nonnull align 8 dereferenceable(16) %"class.std::basic_istream"* @_ZNSirsERi(%"class.std::basic_istream"* nonnull align 8 dereferenceable(16), i32* nonnull align 4 dereferenceable(4)) local_unnamed_addr #0

declare nonnull align 8 dereferenceable(8) %"class.std::basic_ostream"* @_ZNSolsEi(%"class.std::basic_ostream"* nonnull align 8 dereferenceable(8), i32) local_unnamed_addr #0

; Function Attrs: argmemonly mustprogress nofree nosync nounwind willreturn
declare void @llvm.lifetime.end.p0i8(i64 immarg, i8* nocapture) #4

declare nonnull align 8 dereferenceable(8) %"class.std::basic_ostream"* @_ZSt16__ostream_insertIcSt11char_traitsIcEERSt13basic_ostreamIT_T0_ES6_PKS3_l(%"class.std::basic_ostream"* nonnull align 8 dereferenceable(8), i8*, i64) local_unnamed_addr #0

; Function Attrs: sspstrong uwtable
define internal void @_GLOBAL__sub_I_1846.cpp() #5 section ".text.startup" {
  tail call void @_ZNSt8ios_base4InitC1Ev(%"class.std::ios_base::Init"* nonnull align 1 dereferenceable(1) @_ZStL8__ioinit)
  %1 = tail call i32 @__cxa_atexit(void (i8*)* bitcast (void (%"class.std::ios_base::Init"*)* @_ZNSt8ios_base4InitD1Ev to void (i8*)*), i8* getelementptr inbounds (%"class.std::ios_base::Init", %"class.std::ios_base::Init"* @_ZStL8__ioinit, i64 0, i32 0), i8* nonnull @__dso_handle) #7
  ret void
}

; Function Attrs: nofree nosync nounwind readnone willreturn
declare i32 @llvm.vector.reduce.add.v4i32(<4 x i32>) #6


!llvm.module.flags = !{!0, !1, !2, !3}
!llvm.ident = !{!4}

!0 = !{i32 1, !"wchar_size", i32 4}
!1 = !{i32 7, !"PIC Level", i32 2}
!2 = !{i32 7, !"PIE Level", i32 2}
!3 = !{i32 7, !"uwtable", i32 1}
!4 = !{!"clang version 13.0.0"}
!5 = !{!6, !6, i64 0}
!6 = !{!"int", !7, i64 0}
!7 = !{!"omnipotent char", !8, i64 0}
!8 = !{!"Simple C++ TBAA"}
!9 = distinct !{!9, !10}
!10 = !{!"llvm.loop.mustprogress"}
!11 = distinct !{!11, !10, !12}
!12 = !{!"llvm.loop.isvectorized", i32 1}
!13 = distinct !{!13, !10, !14, !12}
!14 = !{!"llvm.loop.unroll.runtime.disable"}
!15 = distinct !{!15, !10}
!16 = distinct !{!16, !10}
!17 = distinct !{!17, !10}
